; Function Attrs: inlinehint nounwind uwtable
define internal fastcc void @Mop_ManUnCreateGroups(ptr noundef readonly captures(none) %0, ptr noundef readonly captures(none) %1) unnamed_addr #7 {
  %3 = getelementptr inbounds nuw i8, ptr %0, i64 32
  %4 = load ptr, ptr %3, align 8, !tbaa !26
  %5 = getelementptr i8, ptr %4, i64 4
  store i32 0, ptr %5, align 4, !tbaa !21
  %6 = getelementptr i8, ptr %1, i64 4
  %.val2327 = load i32, ptr %6, align 4, !tbaa !77
  %7 = icmp sgt i32 %.val2327, 0
  br i1 %7, label %.lr.ph29, label %.critedge

.lr.ph29:                                         ; preds = %2
  %8 = getelementptr i8, ptr %1, i64 8
  br label %9

9:                                                ; preds = %.lr.ph29, %.critedge2
  %.val2336 = phi i32 [ %.val2327, %.lr.ph29 ], [ %.val23, %.critedge2 ]
  %indvars.iv31 = phi i64 [ 0, %.lr.ph29 ], [ %indvars.iv.next32, %.critedge2 ]
  %.val24 = load ptr, ptr %8, align 8, !tbaa !79
  %10 = getelementptr inbounds nuw %struct.Vec_Int_t_, ptr %.val24, i64 %indvars.iv31
  %11 = getelementptr i8, ptr %10, i64 4
  %.val2025 = load i32, ptr %11, align 4, !tbaa !21
  %12 = icmp sgt i32 %.val2025, 0
  br i1 %12, label %.lr.ph, label %.critedge2

.lr.ph:                                           ; preds = %9
  %13 = getelementptr i8, ptr %10, i64 8
  br label %14

14:                                               ; preds = %.lr.ph, %50
  %.val2034 = phi i32 [ %.val2025, %.lr.ph ], [ %.val20, %50 ]
  %indvars.iv = phi i64 [ 0, %.lr.ph ], [ %indvars.iv.next, %50 ]
  %.val22 = load ptr, ptr %13, align 8, !tbaa !25
  %15 = getelementptr inbounds nuw i32, ptr %.val22, i64 %indvars.iv
  %16 = load i32, ptr %15, align 4, !tbaa !28
  %.not = icmp eq i32 %16, -1
  br i1 %.not, label %50, label %17

17:                                               ; preds = %14
  %18 = load ptr, ptr %3, align 8, !tbaa !26
  %19 = getelementptr inbounds nuw i8, ptr %18, i64 4
  %20 = load i32, ptr %19, align 4, !tbaa !21
  %21 = load i32, ptr %18, align 8, !tbaa !24
  %22 = icmp eq i32 %20, %21
  br i1 %22, label %23, label %.Vec_IntGrow.exit10_crit_edge.i

.Vec_IntGrow.exit10_crit_edge.i:                  ; preds = %17
  %.phi.trans.insert.i = getelementptr inbounds nuw i8, ptr %18, i64 8
  %.pre.i = load ptr, ptr %.phi.trans.insert.i, align 8, !tbaa !25
  br label %Vec_IntPush.exit

23:                                               ; preds = %17
  %24 = icmp slt i32 %20, 16
  br i1 %24, label %25, label %33

25:                                               ; preds = %23
  %26 = getelementptr inbounds nuw i8, ptr %18, i64 8
  %27 = load ptr, ptr %26, align 8, !tbaa !25
  %.not9.i.i = icmp eq ptr %27, null
  br i1 %.not9.i.i, label %30, label %28

28:                                               ; preds = %25
  %29 = tail call dereferenceable_or_null(64) ptr @realloc(ptr noundef nonnull %27, i64 noundef 64) #25
  br label %Vec_IntGrow.exit.i

30:                                               ; preds = %25
  %31 = tail call noalias dereferenceable_or_null(64) ptr @malloc(i64 noundef 64) #22
  br label %Vec_IntGrow.exit.i

Vec_IntGrow.exit.i:                               ; preds = %30, %28
  %32 = phi ptr [ %29, %28 ], [ %31, %30 ]
  store ptr %32, ptr %26, align 8, !tbaa !25
  store i32 16, ptr %18, align 8, !tbaa !24
  br label %Vec_IntPush.exit

33:                                               ; preds = %23
  %34 = shl nuw nsw i32 %20, 1
  %35 = getelementptr inbounds nuw i8, ptr %18, i64 8
  %36 = load ptr, ptr %35, align 8, !tbaa !25
  %.not9.i9.i = icmp eq ptr %36, null
  %37 = zext nneg i32 %34 to i64
  %38 = shl nuw nsw i64 %37, 2
  br i1 %.not9.i9.i, label %41, label %39

39:                                               ; preds = %33
  %40 = tail call ptr @realloc(ptr noundef nonnull %36, i64 noundef %38) #25
  br label %43

41:                                               ; preds = %33
  %42 = tail call noalias ptr @malloc(i64 noundef %38) #22
  br label %43

43:                                               ; preds = %41, %39
  %44 = phi ptr [ %40, %39 ], [ %42, %41 ]
  store ptr %44, ptr %35, align 8, !tbaa !25
  store i32 %34, ptr %18, align 8, !tbaa !24
  br label %Vec_IntPush.exit

Vec_IntPush.exit:                                 ; preds = %.Vec_IntGrow.exit10_crit_edge.i, %Vec_IntGrow.exit.i, %43
  %45 = phi ptr [ %.pre.i, %.Vec_IntGrow.exit10_crit_edge.i ], [ %44, %43 ], [ %32, %Vec_IntGrow.exit.i ]
  %46 = load i32, ptr %19, align 4, !tbaa !21
  %47 = add nsw i32 %46, 1
  store i32 %47, ptr %19, align 4, !tbaa !21
  %48 = sext i32 %46 to i64
  %49 = getelementptr inbounds i32, ptr %45, i64 %48
  store i32 %16, ptr %49, align 4, !tbaa !28
  %.val20.pre = load i32, ptr %11, align 4, !tbaa !21
  br label %50

50:                                               ; preds = %14, %Vec_IntPush.exit
  %.val20 = phi i32 [ %.val2034, %14 ], [ %.val20.pre, %Vec_IntPush.exit ]
  %indvars.iv.next = add nuw nsw i64 %indvars.iv, 1
  %51 = sext i32 %.val20 to i64
  %52 = icmp slt i64 %indvars.iv.next, %51
  br i1 %52, label %14, label %.critedge2.loopexit, !llvm.loop !94

.critedge2.loopexit:                              ; preds = %50
  %.val23.pre = load i32, ptr %6, align 4, !tbaa !77
  br label %.critedge2

.critedge2:                                       ; preds = %.critedge2.loopexit, %9
  %.val23 = phi i32 [ %.val23.pre, %.critedge2.loopexit ], [ %.val2336, %9 ]
  %indvars.iv.next32 = add nuw nsw i64 %indvars.iv31, 1
  %53 = sext i32 %.val23 to i64
  %54 = icmp slt i64 %indvars.iv.next32, %53
  br i1 %54, label %9, label %.critedge, !llvm.loop !95

.critedge:                                        ; preds = %.critedge2, %2
  ret void
}